target datalayout = "e-m:e-p270:32:32-p271:32:32-p272:64:64-i64:64-i128:128-f80:128-n8:16:32:64-S128"
target triple = "x86_64-pc-linux-gnu"

%struct.pmix_object_t = type { %union.pthread_mutex_t, ptr, i32, %struct.pmix_tma }
%union.pthread_mutex_t = type { %struct.__pthread_mutex_s }
%struct.__pthread_mutex_s = type { i32, i32, i32, i32, i32, i16, i16, %struct.__pthread_internal_list }
%struct.__pthread_internal_list = type { ptr, ptr }
%struct.pmix_tma = type { ptr, ptr, ptr, ptr, ptr, ptr, ptr, ptr }
%struct.prte_pmix_lock_t = type { %struct.pmix_mutex_t, %union.pthread_cond_t, i8, i32, ptr }
%struct.pmix_mutex_t = type { %struct.pmix_object_t, %union.pthread_mutex_t }
%union.pthread_cond_t = type { %struct.__pthread_cond_s }
%struct.__pthread_cond_s = type { %union.__atomic_wide_counter, %union.__atomic_wide_counter, [2 x i32], [2 x i32], i32, i32, [2 x i32] }
%union.__atomic_wide_counter = type { i64 }

; Function Attrs: inlinehint nounwind uwtable
define internal void @pmix_mutex_unlock(ptr noundef %0) #3 {
  %2 = alloca ptr, align 8
  store ptr %0, ptr %2, align 8, !tbaa !200
  %3 = load ptr, ptr %2, align 8, !tbaa !200
  %4 = getelementptr inbounds nuw %struct.pmix_mutex_t, ptr %3, i32 0, i32 1
  %5 = call i32 @pthread_mutex_unlock(ptr noundef %4) #13
  ret void
}

; Function Attrs: inlinehint nounwind uwtable
define internal void @pmix_mutex_lock(ptr noundef %0) #3 {
  %2 = alloca ptr, align 8
  store ptr %0, ptr %2, align 8, !tbaa !200
  %3 = load ptr, ptr %2, align 8, !tbaa !200
  %4 = getelementptr inbounds nuw %struct.pmix_mutex_t, ptr %3, i32 0, i32 1
  %5 = call i32 @pthread_mutex_lock(ptr noundef %4) #13
  ret void
}

; Function Attrs: inlinehint nounwind uwtable
define internal void @pmix_atomic_wmb() #3 {
  fence release
  ret void
}

; Function Attrs: nounwind uwtable
define internal void @lkcbfunc(i32 noundef %0, ptr noundef %1) #0 {
  %3 = alloca i32, align 4
  %4 = alloca ptr, align 8
  %5 = alloca ptr, align 8
  store i32 %0, ptr %3, align 4, !tbaa !3
  store ptr %1, ptr %4, align 8, !tbaa !19
  call void @llvm.lifetime.start.p0(i64 8, ptr %5) #13
  %6 = load ptr, ptr %4, align 8, !tbaa !19
  store ptr %6, ptr %5, align 8, !tbaa !19
  call void @pmix_atomic_wmb()
  %7 = load i32, ptr %3, align 4, !tbaa !3
  %8 = call i32 @prte_pmix_convert_status(i32 noundef %7)
  %9 = load ptr, ptr %5, align 8, !tbaa !19
  %10 = getelementptr inbounds nuw %struct.prte_pmix_lock_t, ptr %9, i32 0, i32 3
  store i32 %8, ptr %10, align 4, !tbaa !133
  br label %11

11:                                               ; preds = %2
  %12 = load ptr, ptr %5, align 8, !tbaa !19
  %13 = getelementptr inbounds nuw %struct.prte_pmix_lock_t, ptr %12, i32 0, i32 0
  call void @pmix_mutex_lock(ptr noundef %13)
  %14 = load ptr, ptr %5, align 8, !tbaa !19
  %15 = getelementptr inbounds nuw %struct.prte_pmix_lock_t, ptr %14, i32 0, i32 2
  store volatile i8 0, ptr %15, align 8, !tbaa !130
  call void @pmix_atomic_wmb()
  %16 = load ptr, ptr %5, align 8, !tbaa !19
  %17 = getelementptr inbounds nuw %struct.prte_pmix_lock_t, ptr %16, i32 0, i32 1
  %18 = call i32 @pthread_cond_broadcast(ptr noundef %17) #13
  %19 = load ptr, ptr %5, align 8, !tbaa !19
  %20 = getelementptr inbounds nuw %struct.prte_pmix_lock_t, ptr %19, i32 0, i32 0
  call void @pmix_mutex_unlock(ptr noundef %20)
  br label %21

21:                                               ; preds = %11
  br label %22

22:                                               ; preds = %21
  call void @llvm.lifetime.end.p0(i64 8, ptr %5) #13
  ret void
}